target datalayout = "e-m:e-p270:32:32-p271:32:32-p272:64:64-i64:64-i128:128-f80:128-n8:16:32:64-S128"
target triple = "x86_64-unknown-linux-gnu"

%"class.FLAC::Metadata::CueSheet::Track" = type { ptr, ptr }

; Function Attrs: mustprogress sspstrong uwtable
define noundef nonnull align 8 dereferenceable(16) ptr @_ZN4FLAC8Metadata8CueSheet5TrackaSERKS2_(ptr noundef nonnull align 8 dereferenceable(16) %this, ptr noundef nonnull align 8 dereferenceable(16) %track) #0 align 2 {
entry:
  %this.addr = alloca ptr, align 8
  %track.addr = alloca ptr, align 8
  store ptr %this, ptr %this.addr, align 8
  store ptr %track, ptr %track.addr, align 8
  %this1 = load ptr, ptr %this.addr, align 8
  %object_ = getelementptr inbounds %"class.FLAC::Metadata::CueSheet::Track", ptr %this1, i32 0, i32 1
  %0 = load ptr, ptr %object_, align 8
  %cmp = icmp ne ptr null, %0
  br i1 %cmp, label %if.then, label %if.end

if.then:                                          ; preds = %entry
  %object_2 = getelementptr inbounds %"class.FLAC::Metadata::CueSheet::Track", ptr %this1, i32 0, i32 1
  %1 = load ptr, ptr %object_2, align 8
  call void @FLAC__metadata_object_cuesheet_track_delete(ptr noundef %1)
  br label %if.end

if.end:                                           ; preds = %if.then, %entry
  %2 = load ptr, ptr %track.addr, align 8
  %object_3 = getelementptr inbounds %"class.FLAC::Metadata::CueSheet::Track", ptr %2, i32 0, i32 1
  %3 = load ptr, ptr %object_3, align 8
  %call = call ptr @FLAC__metadata_object_cuesheet_track_clone(ptr noundef %3)
  %object_4 = getelementptr inbounds %"class.FLAC::Metadata::CueSheet::Track", ptr %this1, i32 0, i32 1
  store ptr %call, ptr %object_4, align 8
  ret ptr %this1
}