; Function Attrs: mustprogress sspstrong uwtable
define noundef nonnull align 8 dereferenceable(16) ptr @_ZN4FLAC8Metadata8CueSheet5TrackaSERKS2_(ptr noundef nonnull returned align 8 dereferenceable(16) %this, ptr nocapture noundef nonnull readonly align 8 dereferenceable(16) %track) local_unnamed_addr #0 align 2 {
entry:
  %object_ = getelementptr inbounds i8, ptr %this, i64 8
  %0 = load ptr, ptr %object_, align 8
  %cmp.not = icmp eq ptr %0, null
  br i1 %cmp.not, label %if.end, label %if.then

if.then:                                          ; preds = %entry
  tail call void @FLAC__metadata_object_cuesheet_track_delete(ptr noundef nonnull %0)
  br label %if.end

if.end:                                           ; preds = %if.then, %entry
  %object_3 = getelementptr inbounds i8, ptr %track, i64 8
  %1 = load ptr, ptr %object_3, align 8
  %call = tail call ptr @FLAC__metadata_object_cuesheet_track_clone(ptr noundef %1)
  store ptr %call, ptr %object_, align 8
  ret ptr %this
}